; Function Attrs: mustprogress nounwind uwtable
define dso_local noundef zeroext i1 @_ZN4llvm13DWARFVerifier17handleDebugAbbrevEv(ptr noundef nonnull align 8 dereferenceable(242) %0) local_unnamed_addr #0 align 2 {
  %2 = load ptr, ptr %0, align 8
  %3 = getelementptr inbounds nuw i8, ptr %2, i64 24
  %4 = load ptr, ptr %3, align 8
  %5 = getelementptr inbounds nuw i8, ptr %2, i64 32
  %6 = load ptr, ptr %5, align 8
  %7 = ptrtoint ptr %4 to i64
  %8 = ptrtoint ptr %6 to i64
  %9 = sub i64 %7, %8
  %10 = icmp ult i64 %9, 27
  br i1 %10, label %11, label %13

11:                                               ; preds = %1
  %12 = tail call noundef nonnull align 8 dereferenceable(48) ptr @_ZN4llvm11raw_ostream5writeEPKcm(ptr noundef nonnull align 8 dereferenceable(48) %2, ptr noundef nonnull @.str.16, i64 noundef 27) #26
  br label %_ZN4llvm11raw_ostreamlsEPKc.exit

13:                                               ; preds = %1
  tail call void @llvm.memcpy.p0.p0.i64(ptr noundef nonnull align 1 dereferenceable(27) %6, ptr noundef nonnull align 1 dereferenceable(27) @.str.16, i64 27, i1 false)
  %14 = load ptr, ptr %5, align 8
  %15 = getelementptr inbounds i8, ptr %14, i64 27
  store ptr %15, ptr %5, align 8
  br label %_ZN4llvm11raw_ostreamlsEPKc.exit

_ZN4llvm11raw_ostreamlsEPKc.exit:                 ; preds = %11, %13
  %16 = getelementptr inbounds nuw i8, ptr %0, i64 8
  %17 = load ptr, ptr %16, align 8
  %18 = getelementptr inbounds nuw i8, ptr %17, i64 96
  %19 = load ptr, ptr %18, align 8
  %20 = load ptr, ptr %19, align 8
  %21 = getelementptr inbounds i8, ptr %20, i64 72
  %22 = load ptr, ptr %21, align 8
  %23 = tail call { ptr, i64 } %22(ptr noundef nonnull align 8 dereferenceable(32) %19) #26
  %24 = extractvalue { ptr, i64 } %23, 1
  %25 = icmp eq i64 %24, 0
  br i1 %25, label %30, label %26

26:                                               ; preds = %_ZN4llvm11raw_ostreamlsEPKc.exit
  %27 = load ptr, ptr %16, align 8
  %28 = tail call noundef ptr @_ZN4llvm12DWARFContext14getDebugAbbrevEv(ptr noundef nonnull align 8 dereferenceable(105) %27) #26
  %29 = tail call noundef i32 @_ZN4llvm13DWARFVerifier19verifyAbbrevSectionEPKNS_16DWARFDebugAbbrevE(ptr noundef nonnull align 8 dereferenceable(242) %0, ptr noundef %28)
  br label %30

30:                                               ; preds = %26, %_ZN4llvm11raw_ostreamlsEPKc.exit
  %.0 = phi i32 [ %29, %26 ], [ 0, %_ZN4llvm11raw_ostreamlsEPKc.exit ]
  %31 = load ptr, ptr %19, align 8
  %32 = getelementptr inbounds i8, ptr %31, i64 248
  %33 = load ptr, ptr %32, align 8
  %34 = tail call { ptr, i64 } %33(ptr noundef nonnull align 8 dereferenceable(32) %19) #26
  %35 = extractvalue { ptr, i64 } %34, 1
  %36 = icmp eq i64 %35, 0
  br i1 %36, label %42, label %37

37:                                               ; preds = %30
  %38 = load ptr, ptr %16, align 8
  %39 = tail call noundef ptr @_ZN4llvm12DWARFContext17getDebugAbbrevDWOEv(ptr noundef nonnull align 8 dereferenceable(105) %38) #26
  %40 = tail call noundef i32 @_ZN4llvm13DWARFVerifier19verifyAbbrevSectionEPKNS_16DWARFDebugAbbrevE(ptr noundef nonnull align 8 dereferenceable(242) %0, ptr noundef %39)
  %41 = add i32 %40, %.0
  br label %42

42:                                               ; preds = %37, %30
  %.1 = phi i32 [ %41, %37 ], [ %.0, %30 ]
  %43 = icmp eq i32 %.1, 0
  ret i1 %43
}